target datalayout = "e-m:e-p270:32:32-p271:32:32-p272:64:64-i64:64-i128:128-f80:128-n8:16:32:64-S128"
target triple = "x86_64-unknown-linux-gnu"

%"struct.std::_Vector_base" = type { %"struct.std::_Vector_base<double, std::allocator<double>>::_Vector_impl" }
%"struct.std::_Vector_base<double, std::allocator<double>>::_Vector_impl" = type { %"struct.std::_Vector_base<double, std::allocator<double>>::_Vector_impl_data" }
%"struct.std::_Vector_base<double, std::allocator<double>>::_Vector_impl_data" = type { ptr, ptr, ptr }
%"class.QuantLib::CumulativeBinomialDistribution" = type { i64, double }

; Function Attrs: mustprogress uwtable
define linkonce_odr noundef double @_ZNK8QuantLib30CumulativeBinomialDistributionclEm(ptr noundef nonnull align 8 dereferenceable(16) %this, i64 noundef %k) #2 comdat align 2 {
entry:
  %retval = alloca double, align 8
  %this.addr = alloca ptr, align 8
  %k.addr = alloca i64, align 8
  store ptr %this, ptr %this.addr, align 8, !tbaa !7
  store i64 %k, ptr %k.addr, align 8, !tbaa !11
  %this1 = load ptr, ptr %this.addr, align 8
  %0 = load i64, ptr %k.addr, align 8, !tbaa !11
  %n_ = getelementptr inbounds nuw %"class.QuantLib::CumulativeBinomialDistribution", ptr %this1, i32 0, i32 0
  %1 = load i64, ptr %n_, align 8, !tbaa !20
  %cmp = icmp uge i64 %0, %1
  br i1 %cmp, label %if.then, label %if.else

if.then:                                          ; preds = %entry
  store double 1.000000e+00, ptr %retval, align 8
  br label %return

if.else:                                          ; preds = %entry
  %2 = load i64, ptr %k.addr, align 8, !tbaa !11
  %add = add i64 %2, 1
  %conv = uitofp i64 %add to double
  %n_2 = getelementptr inbounds nuw %"class.QuantLib::CumulativeBinomialDistribution", ptr %this1, i32 0, i32 0
  %3 = load i64, ptr %n_2, align 8, !tbaa !20
  %4 = load i64, ptr %k.addr, align 8, !tbaa !11
  %sub = sub i64 %3, %4
  %conv3 = uitofp i64 %sub to double
  %p_ = getelementptr inbounds nuw %"class.QuantLib::CumulativeBinomialDistribution", ptr %this1, i32 0, i32 1
  %5 = load double, ptr %p_, align 8, !tbaa !22
  %call = call noundef double @_ZN8QuantLib22incompleteBetaFunctionEddddi(double noundef %conv, double noundef %conv3, double noundef %5, double noundef 0x3C9CD2B297D889BC, i32 noundef 100)
  %sub4 = fsub double 1.000000e+00, %call
  store double %sub4, ptr %retval, align 8
  br label %return

return:                                           ; preds = %if.else, %if.then
  %6 = load double, ptr %retval, align 8
  ret double %6
}

; Function Attrs: mustprogress nounwind uwtable
define linkonce_odr noundef i64 @_ZNKSt6vectorIdSaIdEE4sizeEv(ptr noundef nonnull align 8 dereferenceable(24) %this) #3 comdat align 2 {
entry:
  %this.addr = alloca ptr, align 8
  store ptr %this, ptr %this.addr, align 8, !tbaa !7
  %this1 = load ptr, ptr %this.addr, align 8
  %_M_impl = getelementptr inbounds nuw %"struct.std::_Vector_base", ptr %this1, i32 0, i32 0
  %_M_finish = getelementptr inbounds nuw %"struct.std::_Vector_base<double, std::allocator<double>>::_Vector_impl_data", ptr %_M_impl, i32 0, i32 1
  %0 = load ptr, ptr %_M_finish, align 8, !tbaa !15
  %_M_impl2 = getelementptr inbounds nuw %"struct.std::_Vector_base", ptr %this1, i32 0, i32 0
  %_M_start = getelementptr inbounds nuw %"struct.std::_Vector_base<double, std::allocator<double>>::_Vector_impl_data", ptr %_M_impl2, i32 0, i32 0
  %1 = load ptr, ptr %_M_start, align 8, !tbaa !13
  %sub.ptr.lhs.cast = ptrtoint ptr %0 to i64
  %sub.ptr.rhs.cast = ptrtoint ptr %1 to i64
  %sub.ptr.sub = sub i64 %sub.ptr.lhs.cast, %sub.ptr.rhs.cast
  %sub.ptr.div = sdiv exact i64 %sub.ptr.sub, 8
  ret i64 %sub.ptr.div
}

; Function Attrs: mustprogress nounwind uwtable
define linkonce_odr noundef nonnull align 8 dereferenceable(8) ptr @_ZNSt6vectorIdSaIdEEixEm(ptr noundef nonnull align 8 dereferenceable(24) %this, i64 noundef %__n) #3 comdat align 2 {
entry:
  %this.addr = alloca ptr, align 8
  %__n.addr = alloca i64, align 8
  store ptr %this, ptr %this.addr, align 8, !tbaa !7
  store i64 %__n, ptr %__n.addr, align 8, !tbaa !11
  %this1 = load ptr, ptr %this.addr, align 8
  %_M_impl = getelementptr inbounds nuw %"struct.std::_Vector_base", ptr %this1, i32 0, i32 0
  %_M_start = getelementptr inbounds nuw %"struct.std::_Vector_base<double, std::allocator<double>>::_Vector_impl_data", ptr %_M_impl, i32 0, i32 0
  %0 = load ptr, ptr %_M_start, align 8, !tbaa !13
  %1 = load i64, ptr %__n.addr, align 8, !tbaa !11
  %add.ptr = getelementptr inbounds nuw double, ptr %0, i64 %1
  ret ptr %add.ptr
}

; Function Attrs: mustprogress uwtable
define noundef double @_ZN8QuantLib8LossDist35binomialProbabilityOfAtLeastNEventsEiRSt6vectorIdSaIdEE(i32 noundef %n, ptr noundef nonnull align 8 dereferenceable(24) %p) #2 align 2 {
entry:
  %n.addr = alloca i32, align 4
  %p.addr = alloca ptr, align 8
  %binomial = alloca %"class.QuantLib::CumulativeBinomialDistribution", align 8
  store i32 %n, ptr %n.addr, align 4, !tbaa !3
  store ptr %p, ptr %p.addr, align 8, !tbaa !7
  call void @llvm.lifetime.start.p0(i64 16, ptr %binomial) #15
  %0 = load ptr, ptr %p.addr, align 8, !tbaa !7
  %call = call noundef nonnull align 8 dereferenceable(8) ptr @_ZNSt6vectorIdSaIdEEixEm(ptr noundef nonnull align 8 dereferenceable(24) %0, i64 noundef 0) #15
  %1 = load double, ptr %call, align 8, !tbaa !9
  %2 = load ptr, ptr %p.addr, align 8, !tbaa !7
  %call1 = call noundef i64 @_ZNKSt6vectorIdSaIdEE4sizeEv(ptr noundef nonnull align 8 dereferenceable(24) %2) #15
  call void @_ZN8QuantLib30CumulativeBinomialDistributionC2Edm(ptr noundef nonnull align 8 dereferenceable(16) %binomial, double noundef %1, i64 noundef %call1)
  %3 = load i32, ptr %n.addr, align 4, !tbaa !3
  %sub = sub nsw i32 %3, 1
  %conv = sext i32 %sub to i64
  %call2 = call noundef double @_ZNK8QuantLib30CumulativeBinomialDistributionclEm(ptr noundef nonnull align 8 dereferenceable(16) %binomial, i64 noundef %conv)
  %sub3 = fsub double 1.000000e+00, %call2
  call void @llvm.lifetime.end.p0(i64 16, ptr %binomial) #15
  ret double %sub3
}