; Function Attrs: mustprogress uwtable
define noundef double @_ZN8QuantLib8LossDist35binomialProbabilityOfAtLeastNEventsEiRSt6vectorIdSaIdEE(i32 noundef %n, ptr nocapture noundef nonnull readonly align 8 dereferenceable(24) %p) local_unnamed_addr #3 align 2 {
entry:
  %binomial = alloca %"class.QuantLib::CumulativeBinomialDistribution", align 8
  call void @llvm.lifetime.start.p0(i64 16, ptr nonnull %binomial) #20
  %0 = load ptr, ptr %p, align 8, !tbaa !3
  %1 = load double, ptr %0, align 8, !tbaa !8
  %_M_finish.i = getelementptr inbounds nuw i8, ptr %p, i64 8
  %2 = load ptr, ptr %_M_finish.i, align 8, !tbaa !10
  %sub.ptr.lhs.cast.i = ptrtoint ptr %2 to i64
  %sub.ptr.rhs.cast.i = ptrtoint ptr %0 to i64
  %sub.ptr.sub.i = sub i64 %sub.ptr.lhs.cast.i, %sub.ptr.rhs.cast.i
  %sub.ptr.div.i = ashr exact i64 %sub.ptr.sub.i, 3
  call void @_ZN8QuantLib30CumulativeBinomialDistributionC2Edm(ptr noundef nonnull align 8 dereferenceable(16) %binomial, double noundef %1, i64 noundef %sub.ptr.div.i)
  %sub = add nsw i32 %n, -1
  %conv = sext i32 %sub to i64
  %3 = load i64, ptr %binomial, align 8, !tbaa !23
  %cmp.not.i = icmp ugt i64 %3, %conv
  br i1 %cmp.not.i, label %if.else.i, label %_ZNK8QuantLib30CumulativeBinomialDistributionclEm.exit

if.else.i:                                        ; preds = %entry
  %add.i = add nuw nsw i64 %conv, 1
  %conv.i = uitofp i64 %add.i to double
  %sub.i = sub nuw i64 %3, %conv
  %conv3.i = uitofp i64 %sub.i to double
  %p_.i = getelementptr inbounds nuw i8, ptr %binomial, i64 8
  %4 = load double, ptr %p_.i, align 8, !tbaa !25
  %call.i = call noundef double @_ZN8QuantLib22incompleteBetaFunctionEddddi(double noundef %conv.i, double noundef %conv3.i, double noundef %4, double noundef 0x3C9CD2B297D889BC, i32 noundef 100)
  %sub4.i = fsub double 1.000000e+00, %call.i
  br label %_ZNK8QuantLib30CumulativeBinomialDistributionclEm.exit

_ZNK8QuantLib30CumulativeBinomialDistributionclEm.exit: ; preds = %entry, %if.else.i
  %retval.0.i = phi double [ %sub4.i, %if.else.i ], [ 1.000000e+00, %entry ]
  %sub3 = fsub double 1.000000e+00, %retval.0.i
  call void @llvm.lifetime.end.p0(i64 16, ptr nonnull %binomial) #20
  ret double %sub3
}